; Function Attrs: mustprogress uwtable
define void @_ZN2cvorERKNS_3MatERKNS_7Scalar_IdEE(ptr dead_on_unwind noalias writable sret(%"class.cv::MatExpr") align 8 %0, ptr noundef nonnull align 8 dereferenceable(96) %1, ptr noundef nonnull align 8 dereferenceable(32) %2) local_unnamed_addr #8 personality ptr @__gxx_personality_v0 {
  %4 = alloca %"class.std::__cxx11::basic_string", align 8
  %5 = alloca %"class.std::allocator", align 1
  call void @llvm.lifetime.start.p0(i64 32, ptr nonnull %4)
  call void @llvm.lifetime.start.p0(i64 1, ptr nonnull %5)
  %6 = tail call noundef zeroext i1 @_ZNK2cv3Mat5emptyEv(ptr noundef nonnull align 8 dereferenceable(96) %1)
  br i1 %6, label %7, label %_ZN2cvL18checkOperandsExistERKNS_3MatE.exit

7:                                                ; preds = %3
  call void @_ZNSaIcEC1Ev(ptr noundef nonnull align 1 dereferenceable(1) %5) #21
  invoke void @_ZNSt7__cxx1112basic_stringIcSt11char_traitsIcESaIcEEC1EPKcRKS3_(ptr noundef nonnull align 8 dereferenceable(32) %4, ptr noundef nonnull @.str.61, ptr noundef nonnull align 1 dereferenceable(1) %5)
          to label %8 unwind label %10

8:                                                ; preds = %7
  invoke void @_ZN2cv5errorEiRKNSt7__cxx1112basic_stringIcSt11char_traitsIcESaIcEEEPKcS9_i(i32 noundef -5, ptr noundef nonnull align 8 dereferenceable(32) %4, ptr noundef nonnull @__func__._ZN2cvL18checkOperandsExistERKNS_3MatES2_, ptr noundef nonnull @.str.9, i32 noundef 24) #22
          to label %9 unwind label %12

9:                                                ; preds = %8
  unreachable

10:                                               ; preds = %7
  %11 = landingpad { ptr, i32 }
          cleanup
  br label %14

12:                                               ; preds = %8
  %13 = landingpad { ptr, i32 }
          cleanup
  call void @_ZNSt7__cxx1112basic_stringIcSt11char_traitsIcESaIcEED1Ev(ptr noundef nonnull align 8 dereferenceable(32) %4) #21
  br label %14

common.resume:                                    ; preds = %20, %14
  %common.resume.op = phi { ptr, i32 } [ %.pn.i, %14 ], [ %21, %20 ]
  resume { ptr, i32 } %common.resume.op

14:                                               ; preds = %12, %10
  %.pn.i = phi { ptr, i32 } [ %13, %12 ], [ %11, %10 ]
  call void @_ZNSaIcED1Ev(ptr noundef nonnull align 1 dereferenceable(1) %5) #21
  br label %common.resume

_ZN2cvL18checkOperandsExistERKNS_3MatE.exit:      ; preds = %3
  call void @llvm.lifetime.end.p0(i64 32, ptr nonnull %4)
  call void @llvm.lifetime.end.p0(i64 1, ptr nonnull %5)
  store ptr null, ptr %0, align 8
  %15 = getelementptr inbounds i8, ptr %0, i64 8
  store i32 0, ptr %15, align 8
  %16 = getelementptr inbounds i8, ptr %0, i64 16
  tail call void @_ZN2cv3MatC1Ev(ptr noundef nonnull align 8 dereferenceable(96) %16) #21
  %17 = getelementptr inbounds i8, ptr %0, i64 112
  tail call void @_ZN2cv3MatC1Ev(ptr noundef nonnull align 8 dereferenceable(96) %17) #21
  %18 = getelementptr inbounds i8, ptr %0, i64 208
  tail call void @_ZN2cv3MatC1Ev(ptr noundef nonnull align 8 dereferenceable(96) %18) #21
  %19 = getelementptr inbounds i8, ptr %0, i64 304
  tail call void @llvm.memset.p0.i64(ptr noundef nonnull align 8 dereferenceable(48) %19, i8 0, i64 48, i1 false)
  invoke void @_ZN2cv9MatOp_Bin8makeExprERNS_7MatExprEcRKNS_3MatERKNS_7Scalar_IdEE(ptr noundef nonnull align 8 dereferenceable(352) %0, i8 noundef signext 124, ptr noundef nonnull align 8 dereferenceable(96) %1, ptr noundef nonnull align 8 dereferenceable(32) %2)
          to label %22 unwind label %20

20:                                               ; preds = %_ZN2cvL18checkOperandsExistERKNS_3MatE.exit
  %21 = landingpad { ptr, i32 }
          cleanup
  tail call void @_ZN2cv7MatExprD2Ev(ptr noundef nonnull align 8 dereferenceable(352) %0) #21
  br label %common.resume

22:                                               ; preds = %_ZN2cvL18checkOperandsExistERKNS_3MatE.exit
  ret void
}